; Function Attrs: mustprogress nofree norecurse nosync nounwind willreturn memory(read, inaccessiblemem: none) uwtable
define i32 @Abc_ObjDressMakeId(ptr noundef readonly captures(none) %0, i32 noundef %1, i32 noundef %2) local_unnamed_addr #6 {
  %4 = shl i32 %1, 2
  %5 = getelementptr i8, ptr %0, i64 32
  %.val = load ptr, ptr %5, align 8
  %6 = getelementptr i8, ptr %.val, i64 8
  %.val.val = load ptr, ptr %6, align 8
  %7 = sext i32 %1 to i64
  %8 = getelementptr inbounds ptr, ptr %.val.val, i64 %7
  %9 = load ptr, ptr %8, align 8
  %10 = getelementptr inbounds nuw i8, ptr %9, i64 20
  %11 = load i32, ptr %10, align 4
  %12 = lshr i32 %11, 6
  %13 = and i32 %12, 2
  %14 = or disjoint i32 %13, %4
  %15 = or i32 %14, %2
  ret i32 %15
}